; Function Attrs: mustprogress uwtable
define hidden void @_ZN11value_sweep14set_value_coreEP4exprS1_(ptr noundef nonnull align 8 dereferenceable(184) %0, ptr noundef readonly captures(none) %1, ptr noundef %2) local_unnamed_addr #3 align 2 {
  %4 = getelementptr inbounds nuw i8, ptr %0, i64 88
  %5 = load i32, ptr %1, align 4, !tbaa !52
  %6 = add i32 %5, 1
  %7 = getelementptr inbounds nuw i8, ptr %0, i64 96
  %8 = load ptr, ptr %7, align 8, !tbaa !11
  %9 = icmp eq ptr %8, null
  br i1 %9, label %_ZNK6vectorIP4exprLb0EjE4sizeEv.exit.i, label %_ZNK6vectorIP4exprLb0EjE4sizeEv.exit.thread.i

_ZNK6vectorIP4exprLb0EjE4sizeEv.exit.i:           ; preds = %3
  %.not.not.i = icmp eq i32 %6, 0
  br i1 %.not.not.i, label %_ZN15ref_vector_coreI4expr19ref_manager_wrapperIS0_11ast_managerEE7reserveEj.exit, label %_ZNK6vectorIP4exprLb0EjE4sizeEv.exit.i.i.preheader

_ZNK6vectorIP4exprLb0EjE4sizeEv.exit.thread.i:    ; preds = %3
  %10 = getelementptr inbounds i8, ptr %8, i64 -4
  %11 = load i32, ptr %10, align 4, !tbaa !38
  %.not3.i = icmp ugt i32 %6, %11
  br i1 %.not3.i, label %_ZNK6vectorIP4exprLb0EjE4sizeEv.exit.i.i.preheader, label %_ZN15ref_vector_coreI4expr19ref_manager_wrapperIS0_11ast_managerEE7reserveEj.exit

_ZNK6vectorIP4exprLb0EjE4sizeEv.exit.i.i.preheader: ; preds = %_ZNK6vectorIP4exprLb0EjE4sizeEv.exit.i, %_ZNK6vectorIP4exprLb0EjE4sizeEv.exit.thread.i
  %.ph = phi ptr [ %8, %_ZNK6vectorIP4exprLb0EjE4sizeEv.exit.thread.i ], [ null, %_ZNK6vectorIP4exprLb0EjE4sizeEv.exit.i ]
  %.0.i16.i.i.ph = phi i32 [ %11, %_ZNK6vectorIP4exprLb0EjE4sizeEv.exit.thread.i ], [ 0, %_ZNK6vectorIP4exprLb0EjE4sizeEv.exit.i ]
  br label %_ZNK6vectorIP4exprLb0EjE4sizeEv.exit.i.i

_ZNK6vectorIP4exprLb0EjE4sizeEv.exit.i.i:         ; preds = %_ZNK6vectorIP4exprLb0EjE4sizeEv.exit.i.i.preheader, %_ZNK6vectorIP4exprLb0EjE8capacityEv.exit.thread.i.i
  %12 = phi ptr [ %.pr.pre.i.i, %_ZNK6vectorIP4exprLb0EjE8capacityEv.exit.thread.i.i ], [ %.ph, %_ZNK6vectorIP4exprLb0EjE4sizeEv.exit.i.i.preheader ]
  %13 = icmp eq ptr %12, null
  br i1 %13, label %_ZNK6vectorIP4exprLb0EjE8capacityEv.exit.thread.i.i, label %_ZNK6vectorIP4exprLb0EjE8capacityEv.exit.i.i

_ZNK6vectorIP4exprLb0EjE8capacityEv.exit.i.i:     ; preds = %_ZNK6vectorIP4exprLb0EjE4sizeEv.exit.i.i
  %14 = getelementptr inbounds i8, ptr %12, i64 -8
  %15 = load i32, ptr %14, align 4, !tbaa !38
  %16 = icmp ugt i32 %6, %15
  br i1 %16, label %_ZNK6vectorIP4exprLb0EjE8capacityEv.exit.thread.i.i, label %17

_ZNK6vectorIP4exprLb0EjE8capacityEv.exit.thread.i.i: ; preds = %_ZNK6vectorIP4exprLb0EjE8capacityEv.exit.i.i, %_ZNK6vectorIP4exprLb0EjE4sizeEv.exit.i.i
  tail call void @_ZN6vectorIP4exprLb0EjE13expand_vectorEv(ptr noundef nonnull align 8 dereferenceable(8) %7)
  %.pr.pre.i.i = load ptr, ptr %7, align 8, !tbaa !11
  br label %_ZNK6vectorIP4exprLb0EjE4sizeEv.exit.i.i, !llvm.loop !53

17:                                               ; preds = %_ZNK6vectorIP4exprLb0EjE8capacityEv.exit.i.i
  %18 = getelementptr inbounds i8, ptr %12, i64 -4
  store i32 %6, ptr %18, align 4, !tbaa !38
  %.not1218.i.i = icmp eq i32 %.0.i16.i.i.ph, %6
  br i1 %.not1218.i.i, label %_ZN15ref_vector_coreI4expr19ref_manager_wrapperIS0_11ast_managerEE7reserveEj.exit, label %.lr.ph.preheader.i.i

.lr.ph.preheader.i.i:                             ; preds = %17
  %19 = zext i32 %6 to i64
  %20 = zext i32 %.0.i16.i.i.ph to i64
  %21 = getelementptr ptr, ptr %12, i64 %20
  %22 = sub nsw i64 %19, %20
  %23 = shl nsw i64 %22, 3
  tail call void @llvm.memset.p0.i64(ptr align 8 %21, i8 0, i64 %23, i1 false), !tbaa !39
  br label %_ZN15ref_vector_coreI4expr19ref_manager_wrapperIS0_11ast_managerEE7reserveEj.exit

_ZN15ref_vector_coreI4expr19ref_manager_wrapperIS0_11ast_managerEE7reserveEj.exit: ; preds = %_ZNK6vectorIP4exprLb0EjE4sizeEv.exit.i, %_ZNK6vectorIP4exprLb0EjE4sizeEv.exit.thread.i, %17, %.lr.ph.preheader.i.i
  %24 = phi ptr [ null, %_ZNK6vectorIP4exprLb0EjE4sizeEv.exit.i ], [ %8, %_ZNK6vectorIP4exprLb0EjE4sizeEv.exit.thread.i ], [ %12, %17 ], [ %12, %.lr.ph.preheader.i.i ]
  %25 = load i32, ptr %1, align 4, !tbaa !52
  %26 = zext i32 %25 to i64
  %27 = getelementptr inbounds nuw ptr, ptr %24, i64 %26
  %28 = load ptr, ptr %4, align 8, !tbaa !41
  %.not.i.i = icmp eq ptr %2, null
  br i1 %.not.i.i, label %_ZN11ast_manager7inc_refEP3ast.exit.i, label %29

29:                                               ; preds = %_ZN15ref_vector_coreI4expr19ref_manager_wrapperIS0_11ast_managerEE7reserveEj.exit
  %30 = getelementptr inbounds nuw i8, ptr %2, i64 8
  %31 = load i32, ptr %30, align 4, !tbaa !42
  %32 = add i32 %31, 1
  store i32 %32, ptr %30, align 4, !tbaa !42
  br label %_ZN11ast_manager7inc_refEP3ast.exit.i

_ZN11ast_manager7inc_refEP3ast.exit.i:            ; preds = %29, %_ZN15ref_vector_coreI4expr19ref_manager_wrapperIS0_11ast_managerEE7reserveEj.exit
  %33 = load ptr, ptr %27, align 8, !tbaa !39
  %.not.i3.i = icmp eq ptr %33, null
  br i1 %.not.i3.i, label %_ZN10ref_vectorI4expr11ast_managerE11element_refaSEPS0_.exit, label %34

34:                                               ; preds = %_ZN11ast_manager7inc_refEP3ast.exit.i
  %35 = getelementptr inbounds nuw i8, ptr %33, i64 8
  %36 = load i32, ptr %35, align 4, !tbaa !42
  %37 = add i32 %36, -1
  store i32 %37, ptr %35, align 4, !tbaa !42
  %38 = icmp eq i32 %37, 0
  br i1 %38, label %39, label %_ZN10ref_vectorI4expr11ast_managerE11element_refaSEPS0_.exit

39:                                               ; preds = %34
  tail call void @_ZN11ast_manager11delete_nodeEP3ast(ptr noundef nonnull align 8 dereferenceable(976) %28, ptr noundef nonnull %33)
  br label %_ZN10ref_vectorI4expr11ast_managerE11element_refaSEPS0_.exit

_ZN10ref_vectorI4expr11ast_managerE11element_refaSEPS0_.exit: ; preds = %_ZN11ast_manager7inc_refEP3ast.exit.i, %34, %39
  store ptr %2, ptr %27, align 8, !tbaa !39
  ret void
}